; Function Attrs: nounwind uwtable
define internal void @HIDAPI_DriverWii_SetDevicePlayerIndex(ptr noundef readonly captures(none) %0, i32 %1, i32 noundef %2) #0 {
  %4 = alloca [2 x i8], align 1
  %5 = getelementptr inbounds nuw i8, ptr %0, i64 112
  %6 = load ptr, ptr %5, align 8
  %7 = getelementptr inbounds nuw i8, ptr %6, i64 8
  %8 = load ptr, ptr %7, align 8
  %.not = icmp eq ptr %8, null
  br i1 %.not, label %36, label %9

9:                                                ; preds = %3
  %10 = getelementptr inbounds nuw i8, ptr %6, i64 36
  store i32 %2, ptr %10, align 4
  call void @llvm.lifetime.start.p0(i64 2, ptr nonnull %4) #7
  %11 = getelementptr inbounds nuw i8, ptr %6, i64 40
  %12 = load i8, ptr %11, align 8, !range !5, !noundef !6
  %13 = getelementptr inbounds nuw i8, ptr %6, i64 32
  %14 = load i8, ptr %13, align 8, !range !5, !noundef !6
  %15 = trunc nuw i8 %14 to i1
  br i1 %15, label %16, label %30

16:                                               ; preds = %9
  %17 = icmp eq i32 %2, 0
  %18 = icmp sgt i32 %2, 3
  %or.cond.i = or i1 %17, %18
  %19 = or disjoint i8 %12, 16
  %.1.i = select i1 %or.cond.i, i8 %19, i8 %12
  switch i32 %2, label %22 [
    i32 1, label %20
    i32 4, label %20
  ]

20:                                               ; preds = %16, %16
  %21 = or disjoint i8 %.1.i, 32
  br label %22

22:                                               ; preds = %20, %16
  %.2.i = phi i8 [ %21, %20 ], [ %.1.i, %16 ]
  switch i32 %2, label %25 [
    i32 2, label %23
    i32 5, label %23
  ]

23:                                               ; preds = %22, %22
  %24 = or i8 %.2.i, 64
  br label %25

25:                                               ; preds = %23, %22
  %.3.i = phi i8 [ %24, %23 ], [ %.2.i, %22 ]
  switch i32 %2, label %28 [
    i32 3, label %26
    i32 6, label %26
  ]

26:                                               ; preds = %25, %25
  %27 = or i8 %.3.i, -128
  br label %28

28:                                               ; preds = %26, %25
  %.4.i = phi i8 [ %27, %26 ], [ %.3.i, %25 ]
  %or.cond23.i = icmp ugt i32 %2, 6
  %29 = or i8 %.4.i, -16
  %spec.select.i = select i1 %or.cond23.i, i8 %29, i8 %.4.i
  br label %30

30:                                               ; preds = %28, %9
  %.0.i = phi i8 [ %12, %9 ], [ %spec.select.i, %28 ]
  store i8 17, ptr %4, align 1
  %31 = getelementptr inbounds nuw i8, ptr %4, i64 1
  store i8 %.0.i, ptr %31, align 1
  %32 = tail call zeroext i1 @SDL_HIDAPI_LockRumble() #7
  br i1 %32, label %33, label %UpdateSlotLED.exit

33:                                               ; preds = %30
  %34 = load ptr, ptr %6, align 8
  %35 = call i32 @SDL_HIDAPI_SendRumbleAndUnlock(ptr noundef %34, ptr noundef nonnull %4, i32 noundef 2) #7
  br label %UpdateSlotLED.exit

UpdateSlotLED.exit:                               ; preds = %30, %33
  call void @llvm.lifetime.end.p0(i64 2, ptr nonnull %4) #7
  br label %36

36:                                               ; preds = %3, %UpdateSlotLED.exit
  ret void
}